; Function Attrs: mustprogress nounwind uwtable
define hidden void @_ZN13LogFileOutput12force_rotateEv(ptr noundef nonnull align 8 dereferenceable(360) %0) unnamed_addr #0 align 2 {
  %2 = getelementptr inbounds i8, ptr %0, i64 292
  %3 = load i32, ptr %2, align 4
  %4 = icmp eq i32 %3, 0
  br i1 %4, label %7, label %5

5:                                                ; preds = %1
  %6 = getelementptr inbounds i8, ptr %0, i64 328
  tail call void @_ZN14PosixSemaphore4waitEv(ptr noundef nonnull align 8 dereferenceable(32) %6) #13
  tail call void @_ZN13LogFileOutput6rotateEv(ptr noundef nonnull align 8 dereferenceable(360) %0)
  tail call void @_ZN14PosixSemaphore6signalEj(ptr noundef nonnull align 8 dereferenceable(32) %6, i32 noundef 1) #13
  br label %7

7:                                                ; preds = %1, %5
  ret void
}